target datalayout = "e-m:e-p270:32:32-p271:32:32-p272:64:64-i64:64-i128:128-f80:128-n8:16:32:64-S128"
target triple = "x86_64-pc-linux-gnu"

%struct.FunctionCallInfoBaseData = type { ptr, ptr, ptr, i32, i8, i16, [0 x %struct.NullableDatum] }
%struct.NullableDatum = type { i64, i8 }
%struct.macaddr = type { i8, i8, i8, i8, i8, i8 }

@.str.11 = private unnamed_addr constant [30 x i8] c"%02x:%02x:%02x:%02x:%02x:%02x\00", align 1

; Function Attrs: inlinehint nounwind uwtable
define internal i64 @PointerGetDatum(ptr noundef %0) #2 {
  %2 = alloca ptr, align 8
  store ptr %0, ptr %2, align 8
  %3 = load ptr, ptr %2, align 8
  %4 = ptrtoint ptr %3 to i64
  ret i64 %4
}

; Function Attrs: inlinehint nounwind uwtable
define internal ptr @DatumGetPointer(i64 noundef %0) #2 {
  %2 = alloca i64, align 8
  store i64 %0, ptr %2, align 8
  %3 = load i64, ptr %2, align 8
  %4 = inttoptr i64 %3 to ptr
  ret ptr %4
}

; Function Attrs: inlinehint nounwind uwtable
define internal i64 @CStringGetDatum(ptr noundef %0) #2 {
  %2 = alloca ptr, align 8
  store ptr %0, ptr %2, align 8
  %3 = load ptr, ptr %2, align 8
  %4 = call i64 @PointerGetDatum(ptr noundef %3)
  ret i64 %4
}

; Function Attrs: inlinehint nounwind uwtable
define internal ptr @DatumGetMacaddrP(i64 noundef %0) #2 {
  %2 = alloca i64, align 8
  store i64 %0, ptr %2, align 8
  %3 = load i64, ptr %2, align 8
  %4 = call ptr @DatumGetPointer(i64 noundef %3)
  ret ptr %4
}

; Function Attrs: nounwind uwtable
define dso_local i64 @macaddr_out(ptr noundef %0) #0 {
  %2 = alloca ptr, align 8
  %3 = alloca ptr, align 8
  %4 = alloca ptr, align 8
  store ptr %0, ptr %2, align 8
  call void @llvm.lifetime.start.p0(i64 8, ptr %3) #9
  %5 = load ptr, ptr %2, align 8
  %6 = getelementptr inbounds nuw %struct.FunctionCallInfoBaseData, ptr %5, i32 0, i32 6
  %7 = getelementptr inbounds [0 x %struct.NullableDatum], ptr %6, i64 0, i64 0
  %8 = getelementptr inbounds nuw %struct.NullableDatum, ptr %7, i32 0, i32 0
  %9 = load i64, ptr %8, align 8
  %10 = call ptr @DatumGetMacaddrP(i64 noundef %9)
  store ptr %10, ptr %3, align 8
  call void @llvm.lifetime.start.p0(i64 8, ptr %4) #9
  %11 = call ptr @palloc(i64 noundef 32)
  store ptr %11, ptr %4, align 8
  %12 = load ptr, ptr %4, align 8
  %13 = load ptr, ptr %3, align 8
  %14 = getelementptr inbounds nuw %struct.macaddr, ptr %13, i32 0, i32 0
  %15 = load i8, ptr %14, align 1
  %16 = zext i8 %15 to i32
  %17 = load ptr, ptr %3, align 8
  %18 = getelementptr inbounds nuw %struct.macaddr, ptr %17, i32 0, i32 1
  %19 = load i8, ptr %18, align 1
  %20 = zext i8 %19 to i32
  %21 = load ptr, ptr %3, align 8
  %22 = getelementptr inbounds nuw %struct.macaddr, ptr %21, i32 0, i32 2
  %23 = load i8, ptr %22, align 1
  %24 = zext i8 %23 to i32
  %25 = load ptr, ptr %3, align 8
  %26 = getelementptr inbounds nuw %struct.macaddr, ptr %25, i32 0, i32 3
  %27 = load i8, ptr %26, align 1
  %28 = zext i8 %27 to i32
  %29 = load ptr, ptr %3, align 8
  %30 = getelementptr inbounds nuw %struct.macaddr, ptr %29, i32 0, i32 4
  %31 = load i8, ptr %30, align 1
  %32 = zext i8 %31 to i32
  %33 = load ptr, ptr %3, align 8
  %34 = getelementptr inbounds nuw %struct.macaddr, ptr %33, i32 0, i32 5
  %35 = load i8, ptr %34, align 1
  %36 = zext i8 %35 to i32
  %37 = call i32 (ptr, i64, ptr, ...) @pg_snprintf(ptr noundef %12, i64 noundef 32, ptr noundef @.str.11, i32 noundef %16, i32 noundef %20, i32 noundef %24, i32 noundef %28, i32 noundef %32, i32 noundef %36)
  %38 = load ptr, ptr %4, align 8
  %39 = call i64 @CStringGetDatum(ptr noundef %38)
  call void @llvm.lifetime.end.p0(i64 8, ptr %4) #9
  call void @llvm.lifetime.end.p0(i64 8, ptr %3) #9
  ret i64 %39
}