; Function Attrs: nounwind uwtable
define dso_local noundef i64 @macaddr_out(ptr noundef readonly captures(none) %0) local_unnamed_addr #0 {
  %2 = getelementptr inbounds nuw i8, ptr %0, i64 32
  %3 = load i64, ptr %2, align 8
  %4 = inttoptr i64 %3 to ptr
  %5 = tail call ptr @palloc(i64 noundef 32) #7
  %6 = load i8, ptr %4, align 1
  %7 = zext i8 %6 to i32
  %8 = getelementptr inbounds nuw i8, ptr %4, i64 1
  %9 = load i8, ptr %8, align 1
  %10 = zext i8 %9 to i32
  %11 = getelementptr inbounds nuw i8, ptr %4, i64 2
  %12 = load i8, ptr %11, align 1
  %13 = zext i8 %12 to i32
  %14 = getelementptr inbounds nuw i8, ptr %4, i64 3
  %15 = load i8, ptr %14, align 1
  %16 = zext i8 %15 to i32
  %17 = getelementptr inbounds nuw i8, ptr %4, i64 4
  %18 = load i8, ptr %17, align 1
  %19 = zext i8 %18 to i32
  %20 = getelementptr inbounds nuw i8, ptr %4, i64 5
  %21 = load i8, ptr %20, align 1
  %22 = zext i8 %21 to i32
  %23 = tail call i32 (ptr, i64, ptr, ...) @pg_snprintf(ptr noundef %5, i64 noundef 32, ptr noundef nonnull @.str.11, i32 noundef %7, i32 noundef %10, i32 noundef %13, i32 noundef %16, i32 noundef %19, i32 noundef %22) #7
  %24 = ptrtoint ptr %5 to i64
  ret i64 %24
}